; Function Attrs: noinline nounwind sspstrong uwtable
define internal fastcc i64 @rb_struct_lookup_default(i64 noundef %0, i64 noundef %1) unnamed_addr #9 {
  %3 = alloca i64, align 8
  store i64 %1, ptr %3, align 8, !tbaa !7
  %4 = call fastcc i32 @rb_struct_pos(i64 noundef %0, ptr noundef %3)
  %5 = icmp slt i32 %4, 0
  br i1 %5, label %18, label %6

6:                                                ; preds = %2
  %7 = zext nneg i32 %4 to i64
  %8 = inttoptr i64 %0 to ptr
  %9 = load i64, ptr %8, align 8, !tbaa !11
  %10 = and i64 %9, 1040384
  %.not.i.i = icmp eq i64 %10, 0
  br i1 %.not.i.i, label %13, label %11

11:                                               ; preds = %6
  %12 = getelementptr inbounds nuw i8, ptr %8, i64 16
  br label %internal_RSTRUCT_GET.exit

13:                                               ; preds = %6
  %14 = getelementptr inbounds nuw i8, ptr %8, i64 24
  %15 = load ptr, ptr %14, align 8, !tbaa !13
  br label %internal_RSTRUCT_GET.exit

internal_RSTRUCT_GET.exit:                        ; preds = %11, %13
  %.0.i.i = phi ptr [ %12, %11 ], [ %15, %13 ]
  %16 = getelementptr i64, ptr %.0.i.i, i64 %7
  %17 = load i64, ptr %16, align 8, !tbaa !7
  br label %18

18:                                               ; preds = %2, %internal_RSTRUCT_GET.exit
  %.0 = phi i64 [ %17, %internal_RSTRUCT_GET.exit ], [ 4, %2 ]
  ret i64 %.0
}